
blt:     file format elf32-littleriscv


Disassembly of section .text:

00400000 <_start>:
  400000:	0500006f          	j	400050 <reset_vector>

00400004 <trap_vector>:
  400004:	34202f73          	csrr	t5,mcause
  400008:	00800f93          	li	t6,8
  40000c:	03ff0863          	beq	t5,t6,40003c <write_tohost>
  400010:	00900f93          	li	t6,9
  400014:	03ff0463          	beq	t5,t6,40003c <write_tohost>
  400018:	00b00f93          	li	t6,11
  40001c:	03ff0063          	beq	t5,t6,40003c <write_tohost>
  400020:	00000f13          	li	t5,0
  400024:	000f0463          	beqz	t5,40002c <trap_vector+0x28>
  400028:	000f0067          	jr	t5
  40002c:	34202f73          	csrr	t5,mcause
  400030:	000f5463          	bgez	t5,400038 <handle_exception>
  400034:	0040006f          	j	400038 <handle_exception>

00400038 <handle_exception>:
  400038:	5391e193          	or	gp,gp,1337

0040003c <write_tohost>:
  40003c:	0fc10f17          	auipc	t5,0xfc10
  400040:	fc3f2223          	sw	gp,-60(t5) # 10010000 <tohost>
  400044:	0fc10f17          	auipc	t5,0xfc10
  400048:	fc0f2023          	sw	zero,-64(t5) # 10010004 <tohost+0x4>
  40004c:	ff1ff06f          	j	40003c <write_tohost>

00400050 <reset_vector>:
  400050:	00000093          	li	ra,0
  400054:	00000113          	li	sp,0
  400058:	00000193          	li	gp,0
  40005c:	00000213          	li	tp,0
  400060:	00000293          	li	t0,0
  400064:	00000313          	li	t1,0
  400068:	00000393          	li	t2,0
  40006c:	00000413          	li	s0,0
  400070:	00000493          	li	s1,0
  400074:	00000513          	li	a0,0
  400078:	00000593          	li	a1,0
  40007c:	00000613          	li	a2,0
  400080:	00000693          	li	a3,0
  400084:	00000713          	li	a4,0
  400088:	00000793          	li	a5,0
  40008c:	00000813          	li	a6,0
  400090:	00000893          	li	a7,0
  400094:	00000913          	li	s2,0
  400098:	00000993          	li	s3,0
  40009c:	00000a13          	li	s4,0
  4000a0:	00000a93          	li	s5,0
  4000a4:	00000b13          	li	s6,0
  4000a8:	00000b93          	li	s7,0
  4000ac:	00000c13          	li	s8,0
  4000b0:	00000c93          	li	s9,0
  4000b4:	00000d13          	li	s10,0
  4000b8:	00000d93          	li	s11,0
  4000bc:	00000e13          	li	t3,0
  4000c0:	00000e93          	li	t4,0
  4000c4:	00000f13          	li	t5,0
  4000c8:	00000f93          	li	t6,0
  4000cc:	f1402573          	csrr	a0,mhartid
  4000d0:	00051063          	bnez	a0,4000d0 <reset_vector+0x80>
  4000d4:	00000297          	auipc	t0,0x0
  4000d8:	01028293          	add	t0,t0,16 # 4000e4 <reset_vector+0x94>
  4000dc:	30529073          	csrw	mtvec,t0
  4000e0:	74445073          	csrw	0x744,8
  4000e4:	00000297          	auipc	t0,0x0
  4000e8:	01028293          	add	t0,t0,16 # 4000f4 <reset_vector+0xa4>
  4000ec:	30529073          	csrw	mtvec,t0
  4000f0:	18005073          	csrw	satp,0
  4000f4:	00000297          	auipc	t0,0x0
  4000f8:	02028293          	add	t0,t0,32 # 400114 <reset_vector+0xc4>
  4000fc:	30529073          	csrw	mtvec,t0
  400100:	800002b7          	lui	t0,0x80000
  400104:	fff28293          	add	t0,t0,-1 # 7fffffff <__global_pointer$+0x5ffe7fb7>
  400108:	3b029073          	csrw	pmpaddr0,t0
  40010c:	01f00293          	li	t0,31
  400110:	3a029073          	csrw	pmpcfg0,t0
  400114:	30405073          	csrw	mie,0
  400118:	00000297          	auipc	t0,0x0
  40011c:	01428293          	add	t0,t0,20 # 40012c <reset_vector+0xdc>
  400120:	30529073          	csrw	mtvec,t0
  400124:	30205073          	csrw	medeleg,0
  400128:	30305073          	csrw	mideleg,0
  40012c:	00000193          	li	gp,0
  400130:	00000297          	auipc	t0,0x0
  400134:	ed428293          	add	t0,t0,-300 # 400004 <trap_vector>
  400138:	30529073          	csrw	mtvec,t0
  40013c:	00100513          	li	a0,1
  400140:	01f51513          	sll	a0,a0,0x1f
  400144:	00054c63          	bltz	a0,40015c <reset_vector+0x10c>
  400148:	0ff0000f          	fence
  40014c:	00100193          	li	gp,1
  400150:	05d00893          	li	a7,93
  400154:	00000513          	li	a0,0
  400158:	00000073          	ecall
  40015c:	00000293          	li	t0,0
  400160:	00028a63          	beqz	t0,400174 <reset_vector+0x124>
  400164:	10529073          	csrw	stvec,t0
  400168:	0000b2b7          	lui	t0,0xb
  40016c:	10928293          	add	t0,t0,265 # b109 <_start-0x3f4ef7>
  400170:	30229073          	csrw	medeleg,t0
  400174:	30005073          	csrw	mstatus,0
  400178:	00000297          	auipc	t0,0x0
  40017c:	01428293          	add	t0,t0,20 # 40018c <test_2>
  400180:	34129073          	csrw	mepc,t0
  400184:	f1402573          	csrr	a0,mhartid
  400188:	30200073          	mret

0040018c <test_2>:
  40018c:	00200193          	li	gp,2
  400190:	00000093          	li	ra,0
  400194:	00100113          	li	sp,1
  400198:	0020c663          	blt	ra,sp,4001a4 <test_2+0x18>
  40019c:	2a301863          	bne	zero,gp,40044c <fail>
  4001a0:	00301663          	bne	zero,gp,4001ac <test_3>
  4001a4:	fe20cee3          	blt	ra,sp,4001a0 <test_2+0x14>
  4001a8:	2a301263          	bne	zero,gp,40044c <fail>

004001ac <test_3>:
  4001ac:	00300193          	li	gp,3
  4001b0:	fff00093          	li	ra,-1
  4001b4:	00100113          	li	sp,1
  4001b8:	0020c663          	blt	ra,sp,4001c4 <test_3+0x18>
  4001bc:	28301863          	bne	zero,gp,40044c <fail>
  4001c0:	00301663          	bne	zero,gp,4001cc <test_4>
  4001c4:	fe20cee3          	blt	ra,sp,4001c0 <test_3+0x14>
  4001c8:	28301263          	bne	zero,gp,40044c <fail>

004001cc <test_4>:
  4001cc:	00400193          	li	gp,4
  4001d0:	ffe00093          	li	ra,-2
  4001d4:	fff00113          	li	sp,-1
  4001d8:	0020c663          	blt	ra,sp,4001e4 <test_4+0x18>
  4001dc:	26301863          	bne	zero,gp,40044c <fail>
  4001e0:	00301663          	bne	zero,gp,4001ec <test_5>
  4001e4:	fe20cee3          	blt	ra,sp,4001e0 <test_4+0x14>
  4001e8:	26301263          	bne	zero,gp,40044c <fail>

004001ec <test_5>:
  4001ec:	00500193          	li	gp,5
  4001f0:	00100093          	li	ra,1
  4001f4:	00000113          	li	sp,0
  4001f8:	0020c463          	blt	ra,sp,400200 <test_5+0x14>
  4001fc:	00301463          	bne	zero,gp,400204 <test_5+0x18>
  400200:	24301663          	bne	zero,gp,40044c <fail>
  400204:	fe20cee3          	blt	ra,sp,400200 <test_5+0x14>

00400208 <test_6>:
  400208:	00600193          	li	gp,6
  40020c:	00100093          	li	ra,1
  400210:	fff00113          	li	sp,-1
  400214:	0020c463          	blt	ra,sp,40021c <test_6+0x14>
  400218:	00301463          	bne	zero,gp,400220 <test_6+0x18>
  40021c:	22301863          	bne	zero,gp,40044c <fail>
  400220:	fe20cee3          	blt	ra,sp,40021c <test_6+0x14>

00400224 <test_7>:
  400224:	00700193          	li	gp,7
  400228:	fff00093          	li	ra,-1
  40022c:	ffe00113          	li	sp,-2
  400230:	0020c463          	blt	ra,sp,400238 <test_7+0x14>
  400234:	00301463          	bne	zero,gp,40023c <test_7+0x18>
  400238:	20301a63          	bne	zero,gp,40044c <fail>
  40023c:	fe20cee3          	blt	ra,sp,400238 <test_7+0x14>

00400240 <test_8>:
  400240:	00800193          	li	gp,8
  400244:	00100093          	li	ra,1
  400248:	ffe00113          	li	sp,-2
  40024c:	0020c463          	blt	ra,sp,400254 <test_8+0x14>
  400250:	00301463          	bne	zero,gp,400258 <test_8+0x18>
  400254:	1e301c63          	bne	zero,gp,40044c <fail>
  400258:	fe20cee3          	blt	ra,sp,400254 <test_8+0x14>

0040025c <test_9>:
  40025c:	00900193          	li	gp,9
  400260:	00000213          	li	tp,0
  400264:	00000093          	li	ra,0
  400268:	fff00113          	li	sp,-1
  40026c:	1e20c063          	blt	ra,sp,40044c <fail>
  400270:	00120213          	add	tp,tp,1 # 1 <_start-0x3fffff>
  400274:	00200293          	li	t0,2
  400278:	fe5216e3          	bne	tp,t0,400264 <test_9+0x8>

0040027c <test_10>:
  40027c:	00a00193          	li	gp,10
  400280:	00000213          	li	tp,0
  400284:	00000093          	li	ra,0
  400288:	fff00113          	li	sp,-1
  40028c:	00000013          	nop
  400290:	1a20ce63          	blt	ra,sp,40044c <fail>
  400294:	00120213          	add	tp,tp,1 # 1 <_start-0x3fffff>
  400298:	00200293          	li	t0,2
  40029c:	fe5214e3          	bne	tp,t0,400284 <test_10+0x8>

004002a0 <test_11>:
  4002a0:	00b00193          	li	gp,11
  4002a4:	00000213          	li	tp,0
  4002a8:	00000093          	li	ra,0
  4002ac:	fff00113          	li	sp,-1
  4002b0:	00000013          	nop
  4002b4:	00000013          	nop
  4002b8:	1820ca63          	blt	ra,sp,40044c <fail>
  4002bc:	00120213          	add	tp,tp,1 # 1 <_start-0x3fffff>
  4002c0:	00200293          	li	t0,2
  4002c4:	fe5212e3          	bne	tp,t0,4002a8 <test_11+0x8>

004002c8 <test_12>:
  4002c8:	00c00193          	li	gp,12
  4002cc:	00000213          	li	tp,0
  4002d0:	00000093          	li	ra,0
  4002d4:	00000013          	nop
  4002d8:	fff00113          	li	sp,-1
  4002dc:	1620c863          	blt	ra,sp,40044c <fail>
  4002e0:	00120213          	add	tp,tp,1 # 1 <_start-0x3fffff>
  4002e4:	00200293          	li	t0,2
  4002e8:	fe5214e3          	bne	tp,t0,4002d0 <test_12+0x8>

004002ec <test_13>:
  4002ec:	00d00193          	li	gp,13
  4002f0:	00000213          	li	tp,0
  4002f4:	00000093          	li	ra,0
  4002f8:	00000013          	nop
  4002fc:	fff00113          	li	sp,-1
  400300:	00000013          	nop
  400304:	1420c463          	blt	ra,sp,40044c <fail>
  400308:	00120213          	add	tp,tp,1 # 1 <_start-0x3fffff>
  40030c:	00200293          	li	t0,2
  400310:	fe5212e3          	bne	tp,t0,4002f4 <test_13+0x8>

00400314 <test_14>:
  400314:	00e00193          	li	gp,14
  400318:	00000213          	li	tp,0
  40031c:	00000093          	li	ra,0
  400320:	00000013          	nop
  400324:	00000013          	nop
  400328:	fff00113          	li	sp,-1
  40032c:	1220c063          	blt	ra,sp,40044c <fail>
  400330:	00120213          	add	tp,tp,1 # 1 <_start-0x3fffff>
  400334:	00200293          	li	t0,2
  400338:	fe5212e3          	bne	tp,t0,40031c <test_14+0x8>

0040033c <test_15>:
  40033c:	00f00193          	li	gp,15
  400340:	00000213          	li	tp,0
  400344:	00000093          	li	ra,0
  400348:	fff00113          	li	sp,-1
  40034c:	1020c063          	blt	ra,sp,40044c <fail>
  400350:	00120213          	add	tp,tp,1 # 1 <_start-0x3fffff>
  400354:	00200293          	li	t0,2
  400358:	fe5216e3          	bne	tp,t0,400344 <test_15+0x8>

0040035c <test_16>:
  40035c:	01000193          	li	gp,16
  400360:	00000213          	li	tp,0
  400364:	00000093          	li	ra,0
  400368:	fff00113          	li	sp,-1
  40036c:	00000013          	nop
  400370:	0c20ce63          	blt	ra,sp,40044c <fail>
  400374:	00120213          	add	tp,tp,1 # 1 <_start-0x3fffff>
  400378:	00200293          	li	t0,2
  40037c:	fe5214e3          	bne	tp,t0,400364 <test_16+0x8>

00400380 <test_17>:
  400380:	01100193          	li	gp,17
  400384:	00000213          	li	tp,0
  400388:	00000093          	li	ra,0
  40038c:	fff00113          	li	sp,-1
  400390:	00000013          	nop
  400394:	00000013          	nop
  400398:	0a20ca63          	blt	ra,sp,40044c <fail>
  40039c:	00120213          	add	tp,tp,1 # 1 <_start-0x3fffff>
  4003a0:	00200293          	li	t0,2
  4003a4:	fe5212e3          	bne	tp,t0,400388 <test_17+0x8>

004003a8 <test_18>:
  4003a8:	01200193          	li	gp,18
  4003ac:	00000213          	li	tp,0
  4003b0:	00000093          	li	ra,0
  4003b4:	00000013          	nop
  4003b8:	fff00113          	li	sp,-1
  4003bc:	0820c863          	blt	ra,sp,40044c <fail>
  4003c0:	00120213          	add	tp,tp,1 # 1 <_start-0x3fffff>
  4003c4:	00200293          	li	t0,2
  4003c8:	fe5214e3          	bne	tp,t0,4003b0 <test_18+0x8>

004003cc <test_19>:
  4003cc:	01300193          	li	gp,19
  4003d0:	00000213          	li	tp,0
  4003d4:	00000093          	li	ra,0
  4003d8:	00000013          	nop
  4003dc:	fff00113          	li	sp,-1
  4003e0:	00000013          	nop
  4003e4:	0620c463          	blt	ra,sp,40044c <fail>
  4003e8:	00120213          	add	tp,tp,1 # 1 <_start-0x3fffff>
  4003ec:	00200293          	li	t0,2
  4003f0:	fe5212e3          	bne	tp,t0,4003d4 <test_19+0x8>

004003f4 <test_20>:
  4003f4:	01400193          	li	gp,20
  4003f8:	00000213          	li	tp,0
  4003fc:	00000093          	li	ra,0
  400400:	00000013          	nop
  400404:	00000013          	nop
  400408:	fff00113          	li	sp,-1
  40040c:	0420c063          	blt	ra,sp,40044c <fail>
  400410:	00120213          	add	tp,tp,1 # 1 <_start-0x3fffff>
  400414:	00200293          	li	t0,2
  400418:	fe5212e3          	bne	tp,t0,4003fc <test_20+0x8>

0040041c <test_21>:
  40041c:	01500193          	li	gp,21
  400420:	00100093          	li	ra,1
  400424:	00104a63          	bgtz	ra,400438 <test_21+0x1c>
  400428:	00108093          	add	ra,ra,1
  40042c:	00108093          	add	ra,ra,1
  400430:	00108093          	add	ra,ra,1
  400434:	00108093          	add	ra,ra,1
  400438:	00108093          	add	ra,ra,1
  40043c:	00108093          	add	ra,ra,1
  400440:	00300393          	li	t2,3
  400444:	00709463          	bne	ra,t2,40044c <fail>
  400448:	02301063          	bne	zero,gp,400468 <pass>

0040044c <fail>:
  40044c:	0ff0000f          	fence
  400450:	00018063          	beqz	gp,400450 <fail+0x4>
  400454:	00119193          	sll	gp,gp,0x1
  400458:	0011e193          	or	gp,gp,1
  40045c:	05d00893          	li	a7,93
  400460:	00018513          	mv	a0,gp
  400464:	0000006f          	j	400464 <fail+0x18>

00400468 <pass>:
  400468:	0ff0000f          	fence
  40046c:	00100193          	li	gp,1
  400470:	05d00893          	li	a7,93
  400474:	00000513          	li	a0,0
  400478:	00000073          	ecall
  40047c:	c0001073          	unimp
	...
