
main:     file format elf32-littleriscv


Disassembly of section .init:

00400000 <_start>:
  400000:	1fc18197          	auipc	gp,0x1fc18
  400004:	03018193          	add	gp,gp,48 # 20018030 <__global_pointer$>
  400008:	7fbff117          	auipc	sp,0x7fbff
  40000c:	ff410113          	add	sp,sp,-12 # 7fffeffc <__stack_top>
  400010:	00010433          	add	s0,sp,zero
  400014:	1e0000ef          	jal	4001f4 <main>

00400018 <el>:
  400018:	0000006f          	j	400018 <el>
  40001c:	00000013          	nop
  400020:	00000013          	nop

Disassembly of section .text:

00400024 <swap>:
  400024:	fd010113          	add	sp,sp,-48
  400028:	02812623          	sw	s0,44(sp)
  40002c:	03010413          	add	s0,sp,48
  400030:	fca42e23          	sw	a0,-36(s0)
  400034:	fcb42c23          	sw	a1,-40(s0)
  400038:	fdc42783          	lw	a5,-36(s0)
  40003c:	0007a783          	lw	a5,0(a5)
  400040:	fef42623          	sw	a5,-20(s0)
  400044:	fd842783          	lw	a5,-40(s0)
  400048:	0007a703          	lw	a4,0(a5)
  40004c:	fdc42783          	lw	a5,-36(s0)
  400050:	00e7a023          	sw	a4,0(a5)
  400054:	fd842783          	lw	a5,-40(s0)
  400058:	fec42703          	lw	a4,-20(s0)
  40005c:	00e7a023          	sw	a4,0(a5)
  400060:	00000013          	nop
  400064:	02c12403          	lw	s0,44(sp)
  400068:	03010113          	add	sp,sp,48
  40006c:	00008067          	ret

00400070 <partition>:
  400070:	fd010113          	add	sp,sp,-48
  400074:	02112623          	sw	ra,44(sp)
  400078:	02812423          	sw	s0,40(sp)
  40007c:	03010413          	add	s0,sp,48
  400080:	fca42e23          	sw	a0,-36(s0)
  400084:	fcb42c23          	sw	a1,-40(s0)
  400088:	fcc42a23          	sw	a2,-44(s0)
  40008c:	fd442783          	lw	a5,-44(s0)
  400090:	00279793          	sll	a5,a5,0x2
  400094:	fdc42703          	lw	a4,-36(s0)
  400098:	00f707b3          	add	a5,a4,a5
  40009c:	0007a783          	lw	a5,0(a5)
  4000a0:	fef42223          	sw	a5,-28(s0)
  4000a4:	fd842783          	lw	a5,-40(s0)
  4000a8:	fff78793          	add	a5,a5,-1
  4000ac:	fef42623          	sw	a5,-20(s0)
  4000b0:	fd842783          	lw	a5,-40(s0)
  4000b4:	fef42423          	sw	a5,-24(s0)
  4000b8:	0640006f          	j	40011c <partition+0xac>
  4000bc:	fe842783          	lw	a5,-24(s0)
  4000c0:	00279793          	sll	a5,a5,0x2
  4000c4:	fdc42703          	lw	a4,-36(s0)
  4000c8:	00f707b3          	add	a5,a4,a5
  4000cc:	0007a783          	lw	a5,0(a5)
  4000d0:	fe442703          	lw	a4,-28(s0)
  4000d4:	02e7de63          	bge	a5,a4,400110 <partition+0xa0>
  4000d8:	fec42783          	lw	a5,-20(s0)
  4000dc:	00178793          	add	a5,a5,1
  4000e0:	fef42623          	sw	a5,-20(s0)
  4000e4:	fec42783          	lw	a5,-20(s0)
  4000e8:	00279793          	sll	a5,a5,0x2
  4000ec:	fdc42703          	lw	a4,-36(s0)
  4000f0:	00f706b3          	add	a3,a4,a5
  4000f4:	fe842783          	lw	a5,-24(s0)
  4000f8:	00279793          	sll	a5,a5,0x2
  4000fc:	fdc42703          	lw	a4,-36(s0)
  400100:	00f707b3          	add	a5,a4,a5
  400104:	00078593          	mv	a1,a5
  400108:	00068513          	mv	a0,a3
  40010c:	f19ff0ef          	jal	400024 <swap>
  400110:	fe842783          	lw	a5,-24(s0)
  400114:	00178793          	add	a5,a5,1
  400118:	fef42423          	sw	a5,-24(s0)
  40011c:	fe842703          	lw	a4,-24(s0)
  400120:	fd442783          	lw	a5,-44(s0)
  400124:	f8f74ce3          	blt	a4,a5,4000bc <partition+0x4c>
  400128:	fec42783          	lw	a5,-20(s0)
  40012c:	00178793          	add	a5,a5,1
  400130:	00279793          	sll	a5,a5,0x2
  400134:	fdc42703          	lw	a4,-36(s0)
  400138:	00f706b3          	add	a3,a4,a5
  40013c:	fd442783          	lw	a5,-44(s0)
  400140:	00279793          	sll	a5,a5,0x2
  400144:	fdc42703          	lw	a4,-36(s0)
  400148:	00f707b3          	add	a5,a4,a5
  40014c:	00078593          	mv	a1,a5
  400150:	00068513          	mv	a0,a3
  400154:	ed1ff0ef          	jal	400024 <swap>
  400158:	fec42783          	lw	a5,-20(s0)
  40015c:	00178793          	add	a5,a5,1
  400160:	00078513          	mv	a0,a5
  400164:	02c12083          	lw	ra,44(sp)
  400168:	02812403          	lw	s0,40(sp)
  40016c:	03010113          	add	sp,sp,48
  400170:	00008067          	ret

00400174 <quickSort>:
  400174:	fd010113          	add	sp,sp,-48
  400178:	02112623          	sw	ra,44(sp)
  40017c:	02812423          	sw	s0,40(sp)
  400180:	03010413          	add	s0,sp,48
  400184:	fca42e23          	sw	a0,-36(s0)
  400188:	fcb42c23          	sw	a1,-40(s0)
  40018c:	fcc42a23          	sw	a2,-44(s0)
  400190:	fd842703          	lw	a4,-40(s0)
  400194:	fd442783          	lw	a5,-44(s0)
  400198:	04f75463          	bge	a4,a5,4001e0 <quickSort+0x6c>
  40019c:	fd442603          	lw	a2,-44(s0)
  4001a0:	fd842583          	lw	a1,-40(s0)
  4001a4:	fdc42503          	lw	a0,-36(s0)
  4001a8:	ec9ff0ef          	jal	400070 <partition>
  4001ac:	fea42623          	sw	a0,-20(s0)
  4001b0:	fec42783          	lw	a5,-20(s0)
  4001b4:	fff78793          	add	a5,a5,-1
  4001b8:	00078613          	mv	a2,a5
  4001bc:	fd842583          	lw	a1,-40(s0)
  4001c0:	fdc42503          	lw	a0,-36(s0)
  4001c4:	fb1ff0ef          	jal	400174 <quickSort>
  4001c8:	fec42783          	lw	a5,-20(s0)
  4001cc:	00178793          	add	a5,a5,1
  4001d0:	fd442603          	lw	a2,-44(s0)
  4001d4:	00078593          	mv	a1,a5
  4001d8:	fdc42503          	lw	a0,-36(s0)
  4001dc:	f99ff0ef          	jal	400174 <quickSort>
  4001e0:	00000013          	nop
  4001e4:	02c12083          	lw	ra,44(sp)
  4001e8:	02812403          	lw	s0,40(sp)
  4001ec:	03010113          	add	sp,sp,48
  4001f0:	00008067          	ret

004001f4 <main>:
  4001f4:	ff010113          	add	sp,sp,-16
  4001f8:	00112623          	sw	ra,12(sp)
  4001fc:	00812423          	sw	s0,8(sp)
  400200:	01010413          	add	s0,sp,16
  400204:	00b00613          	li	a2,11
  400208:	00000593          	li	a1,0
  40020c:	100107b7          	lui	a5,0x10010
  400210:	00078513          	mv	a0,a5
  400214:	f61ff0ef          	jal	400174 <quickSort>
  400218:	100107b7          	lui	a5,0x10010
  40021c:	00078793          	mv	a5,a5
  400220:	0007a703          	lw	a4,0(a5) # 10010000 <arr.0>
  400224:	100107b7          	lui	a5,0x10010
  400228:	02e7a823          	sw	a4,48(a5) # 10010030 <result>
  40022c:	0000006f          	j	40022c <main+0x38>
