
lbu:     file format elf32-littleriscv


Disassembly of section .text:

00400000 <_start>:
  400000:	0500006f          	j	400050 <reset_vector>

00400004 <trap_vector>:
  400004:	34202f73          	csrr	t5,mcause
  400008:	00800f93          	li	t6,8
  40000c:	03ff0863          	beq	t5,t6,40003c <write_tohost>
  400010:	00900f93          	li	t6,9
  400014:	03ff0463          	beq	t5,t6,40003c <write_tohost>
  400018:	00b00f93          	li	t6,11
  40001c:	03ff0063          	beq	t5,t6,40003c <write_tohost>
  400020:	00000f13          	li	t5,0
  400024:	000f0463          	beqz	t5,40002c <trap_vector+0x28>
  400028:	000f0067          	jr	t5
  40002c:	34202f73          	csrr	t5,mcause
  400030:	000f5463          	bgez	t5,400038 <handle_exception>
  400034:	0040006f          	j	400038 <handle_exception>

00400038 <handle_exception>:
  400038:	5391e193          	or	gp,gp,1337

0040003c <write_tohost>:
  40003c:	0fc10f17          	auipc	t5,0xfc10
  400040:	003f2223          	sw	gp,4(t5) # 10010040 <tohost>
  400044:	0fc10f17          	auipc	t5,0xfc10
  400048:	000f2023          	sw	zero,0(t5) # 10010044 <tohost+0x4>
  40004c:	ff1ff06f          	j	40003c <write_tohost>

00400050 <reset_vector>:
  400050:	00000093          	li	ra,0
  400054:	00000113          	li	sp,0
  400058:	00000193          	li	gp,0
  40005c:	00000213          	li	tp,0
  400060:	00000293          	li	t0,0
  400064:	00000313          	li	t1,0
  400068:	00000393          	li	t2,0
  40006c:	00000413          	li	s0,0
  400070:	00000493          	li	s1,0
  400074:	00000513          	li	a0,0
  400078:	00000593          	li	a1,0
  40007c:	00000613          	li	a2,0
  400080:	00000693          	li	a3,0
  400084:	00000713          	li	a4,0
  400088:	00000793          	li	a5,0
  40008c:	00000813          	li	a6,0
  400090:	00000893          	li	a7,0
  400094:	00000913          	li	s2,0
  400098:	00000993          	li	s3,0
  40009c:	00000a13          	li	s4,0
  4000a0:	00000a93          	li	s5,0
  4000a4:	00000b13          	li	s6,0
  4000a8:	00000b93          	li	s7,0
  4000ac:	00000c13          	li	s8,0
  4000b0:	00000c93          	li	s9,0
  4000b4:	00000d13          	li	s10,0
  4000b8:	00000d93          	li	s11,0
  4000bc:	00000e13          	li	t3,0
  4000c0:	00000e93          	li	t4,0
  4000c4:	00000f13          	li	t5,0
  4000c8:	00000f93          	li	t6,0
  4000cc:	f1402573          	csrr	a0,mhartid
  4000d0:	00051063          	bnez	a0,4000d0 <reset_vector+0x80>
  4000d4:	00000297          	auipc	t0,0x0
  4000d8:	01028293          	add	t0,t0,16 # 4000e4 <reset_vector+0x94>
  4000dc:	30529073          	csrw	mtvec,t0
  4000e0:	74445073          	csrw	0x744,8
  4000e4:	00000297          	auipc	t0,0x0
  4000e8:	01028293          	add	t0,t0,16 # 4000f4 <reset_vector+0xa4>
  4000ec:	30529073          	csrw	mtvec,t0
  4000f0:	18005073          	csrw	satp,0
  4000f4:	00000297          	auipc	t0,0x0
  4000f8:	02028293          	add	t0,t0,32 # 400114 <reset_vector+0xc4>
  4000fc:	30529073          	csrw	mtvec,t0
  400100:	800002b7          	lui	t0,0x80000
  400104:	fff28293          	add	t0,t0,-1 # 7fffffff <__global_pointer$+0x5ffe7f77>
  400108:	3b029073          	csrw	pmpaddr0,t0
  40010c:	01f00293          	li	t0,31
  400110:	3a029073          	csrw	pmpcfg0,t0
  400114:	30405073          	csrw	mie,0
  400118:	00000297          	auipc	t0,0x0
  40011c:	01428293          	add	t0,t0,20 # 40012c <reset_vector+0xdc>
  400120:	30529073          	csrw	mtvec,t0
  400124:	30205073          	csrw	medeleg,0
  400128:	30305073          	csrw	mideleg,0
  40012c:	00000193          	li	gp,0
  400130:	00000297          	auipc	t0,0x0
  400134:	ed428293          	add	t0,t0,-300 # 400004 <trap_vector>
  400138:	30529073          	csrw	mtvec,t0
  40013c:	00100513          	li	a0,1
  400140:	01f51513          	sll	a0,a0,0x1f
  400144:	00054c63          	bltz	a0,40015c <reset_vector+0x10c>
  400148:	0ff0000f          	fence
  40014c:	00100193          	li	gp,1
  400150:	05d00893          	li	a7,93
  400154:	00000513          	li	a0,0
  400158:	00000073          	ecall
  40015c:	00000293          	li	t0,0
  400160:	00028a63          	beqz	t0,400174 <reset_vector+0x124>
  400164:	10529073          	csrw	stvec,t0
  400168:	0000b2b7          	lui	t0,0xb
  40016c:	10928293          	add	t0,t0,265 # b109 <_start-0x3f4ef7>
  400170:	30229073          	csrw	medeleg,t0
  400174:	30005073          	csrw	mstatus,0
  400178:	00000297          	auipc	t0,0x0
  40017c:	01428293          	add	t0,t0,20 # 40018c <test_2>
  400180:	34129073          	csrw	mepc,t0
  400184:	f1402573          	csrr	a0,mhartid
  400188:	30200073          	mret

0040018c <test_2>:
  40018c:	00200193          	li	gp,2
  400190:	0ff00793          	li	a5,255
  400194:	0fc10117          	auipc	sp,0xfc10
  400198:	e6c10113          	add	sp,sp,-404 # 10010000 <begin_signature>
  40019c:	00014703          	lbu	a4,0(sp)
  4001a0:	0ff00393          	li	t2,255
  4001a4:	24771a63          	bne	a4,t2,4003f8 <fail>

004001a8 <test_3>:
  4001a8:	00300193          	li	gp,3
  4001ac:	00000793          	li	a5,0
  4001b0:	0fc10117          	auipc	sp,0xfc10
  4001b4:	e5010113          	add	sp,sp,-432 # 10010000 <begin_signature>
  4001b8:	00114703          	lbu	a4,1(sp)
  4001bc:	00000393          	li	t2,0
  4001c0:	22771c63          	bne	a4,t2,4003f8 <fail>

004001c4 <test_4>:
  4001c4:	00400193          	li	gp,4
  4001c8:	0f000793          	li	a5,240
  4001cc:	0fc10117          	auipc	sp,0xfc10
  4001d0:	e3410113          	add	sp,sp,-460 # 10010000 <begin_signature>
  4001d4:	00214703          	lbu	a4,2(sp)
  4001d8:	0f000393          	li	t2,240
  4001dc:	20771e63          	bne	a4,t2,4003f8 <fail>

004001e0 <test_5>:
  4001e0:	00500193          	li	gp,5
  4001e4:	00f00793          	li	a5,15
  4001e8:	0fc10117          	auipc	sp,0xfc10
  4001ec:	e1810113          	add	sp,sp,-488 # 10010000 <begin_signature>
  4001f0:	00314703          	lbu	a4,3(sp)
  4001f4:	00f00393          	li	t2,15
  4001f8:	20771063          	bne	a4,t2,4003f8 <fail>

004001fc <test_6>:
  4001fc:	00600193          	li	gp,6
  400200:	0ff00793          	li	a5,255
  400204:	0fc10117          	auipc	sp,0xfc10
  400208:	dff10113          	add	sp,sp,-513 # 10010003 <tdat4>
  40020c:	ffd14703          	lbu	a4,-3(sp)
  400210:	0ff00393          	li	t2,255
  400214:	1e771263          	bne	a4,t2,4003f8 <fail>

00400218 <test_7>:
  400218:	00700193          	li	gp,7
  40021c:	00000793          	li	a5,0
  400220:	0fc10117          	auipc	sp,0xfc10
  400224:	de310113          	add	sp,sp,-541 # 10010003 <tdat4>
  400228:	ffe14703          	lbu	a4,-2(sp)
  40022c:	00000393          	li	t2,0
  400230:	1c771463          	bne	a4,t2,4003f8 <fail>

00400234 <test_8>:
  400234:	00800193          	li	gp,8
  400238:	0f000793          	li	a5,240
  40023c:	0fc10117          	auipc	sp,0xfc10
  400240:	dc710113          	add	sp,sp,-569 # 10010003 <tdat4>
  400244:	fff14703          	lbu	a4,-1(sp)
  400248:	0f000393          	li	t2,240
  40024c:	1a771663          	bne	a4,t2,4003f8 <fail>

00400250 <test_9>:
  400250:	00900193          	li	gp,9
  400254:	00f00793          	li	a5,15
  400258:	0fc10117          	auipc	sp,0xfc10
  40025c:	dab10113          	add	sp,sp,-597 # 10010003 <tdat4>
  400260:	00014703          	lbu	a4,0(sp)
  400264:	00f00393          	li	t2,15
  400268:	18771863          	bne	a4,t2,4003f8 <fail>

0040026c <test_10>:
  40026c:	00a00193          	li	gp,10
  400270:	0fc10097          	auipc	ra,0xfc10
  400274:	d9008093          	add	ra,ra,-624 # 10010000 <begin_signature>
  400278:	fe008093          	add	ra,ra,-32
  40027c:	0200c283          	lbu	t0,32(ra)
  400280:	0ff00393          	li	t2,255
  400284:	16729a63          	bne	t0,t2,4003f8 <fail>

00400288 <test_11>:
  400288:	00b00193          	li	gp,11
  40028c:	0fc10097          	auipc	ra,0xfc10
  400290:	d7408093          	add	ra,ra,-652 # 10010000 <begin_signature>
  400294:	ffa08093          	add	ra,ra,-6
  400298:	0070c283          	lbu	t0,7(ra)
  40029c:	00000393          	li	t2,0
  4002a0:	14729c63          	bne	t0,t2,4003f8 <fail>

004002a4 <test_12>:
  4002a4:	00c00193          	li	gp,12
  4002a8:	00000213          	li	tp,0
  4002ac:	0fc10697          	auipc	a3,0xfc10
  4002b0:	d5568693          	add	a3,a3,-683 # 10010001 <tdat2>
  4002b4:	0016c703          	lbu	a4,1(a3)
  4002b8:	00070313          	mv	t1,a4
  4002bc:	0f000393          	li	t2,240
  4002c0:	12731c63          	bne	t1,t2,4003f8 <fail>
  4002c4:	00120213          	add	tp,tp,1 # 1 <_start-0x3fffff>
  4002c8:	00200293          	li	t0,2
  4002cc:	fe5210e3          	bne	tp,t0,4002ac <test_12+0x8>

004002d0 <test_13>:
  4002d0:	00d00193          	li	gp,13
  4002d4:	00000213          	li	tp,0
  4002d8:	0fc10697          	auipc	a3,0xfc10
  4002dc:	d2a68693          	add	a3,a3,-726 # 10010002 <tdat3>
  4002e0:	0016c703          	lbu	a4,1(a3)
  4002e4:	00000013          	nop
  4002e8:	00070313          	mv	t1,a4
  4002ec:	00f00393          	li	t2,15
  4002f0:	10731463          	bne	t1,t2,4003f8 <fail>
  4002f4:	00120213          	add	tp,tp,1 # 1 <_start-0x3fffff>
  4002f8:	00200293          	li	t0,2
  4002fc:	fc521ee3          	bne	tp,t0,4002d8 <test_13+0x8>

00400300 <test_14>:
  400300:	00e00193          	li	gp,14
  400304:	00000213          	li	tp,0
  400308:	0fc10697          	auipc	a3,0xfc10
  40030c:	cf868693          	add	a3,a3,-776 # 10010000 <begin_signature>
  400310:	0016c703          	lbu	a4,1(a3)
  400314:	00000013          	nop
  400318:	00000013          	nop
  40031c:	00070313          	mv	t1,a4
  400320:	00000393          	li	t2,0
  400324:	0c731a63          	bne	t1,t2,4003f8 <fail>
  400328:	00120213          	add	tp,tp,1 # 1 <_start-0x3fffff>
  40032c:	00200293          	li	t0,2
  400330:	fc521ce3          	bne	tp,t0,400308 <test_14+0x8>

00400334 <test_15>:
  400334:	00f00193          	li	gp,15
  400338:	00000213          	li	tp,0
  40033c:	0fc10697          	auipc	a3,0xfc10
  400340:	cc568693          	add	a3,a3,-827 # 10010001 <tdat2>
  400344:	0016c703          	lbu	a4,1(a3)
  400348:	0f000393          	li	t2,240
  40034c:	0a771663          	bne	a4,t2,4003f8 <fail>
  400350:	00120213          	add	tp,tp,1 # 1 <_start-0x3fffff>
  400354:	00200293          	li	t0,2
  400358:	fe5212e3          	bne	tp,t0,40033c <test_15+0x8>

0040035c <test_16>:
  40035c:	01000193          	li	gp,16
  400360:	00000213          	li	tp,0
  400364:	0fc10697          	auipc	a3,0xfc10
  400368:	c9e68693          	add	a3,a3,-866 # 10010002 <tdat3>
  40036c:	00000013          	nop
  400370:	0016c703          	lbu	a4,1(a3)
  400374:	00f00393          	li	t2,15
  400378:	08771063          	bne	a4,t2,4003f8 <fail>
  40037c:	00120213          	add	tp,tp,1 # 1 <_start-0x3fffff>
  400380:	00200293          	li	t0,2
  400384:	fe5210e3          	bne	tp,t0,400364 <test_16+0x8>

00400388 <test_17>:
  400388:	01100193          	li	gp,17
  40038c:	00000213          	li	tp,0
  400390:	0fc10697          	auipc	a3,0xfc10
  400394:	c7068693          	add	a3,a3,-912 # 10010000 <begin_signature>
  400398:	00000013          	nop
  40039c:	00000013          	nop
  4003a0:	0016c703          	lbu	a4,1(a3)
  4003a4:	00000393          	li	t2,0
  4003a8:	04771863          	bne	a4,t2,4003f8 <fail>
  4003ac:	00120213          	add	tp,tp,1 # 1 <_start-0x3fffff>
  4003b0:	00200293          	li	t0,2
  4003b4:	fc521ee3          	bne	tp,t0,400390 <test_17+0x8>

004003b8 <test_18>:
  4003b8:	01200193          	li	gp,18
  4003bc:	0fc10297          	auipc	t0,0xfc10
  4003c0:	c4428293          	add	t0,t0,-956 # 10010000 <begin_signature>
  4003c4:	0002c103          	lbu	sp,0(t0)
  4003c8:	00200113          	li	sp,2
  4003cc:	00200393          	li	t2,2
  4003d0:	02711463          	bne	sp,t2,4003f8 <fail>

004003d4 <test_19>:
  4003d4:	01300193          	li	gp,19
  4003d8:	0fc10297          	auipc	t0,0xfc10
  4003dc:	c2828293          	add	t0,t0,-984 # 10010000 <begin_signature>
  4003e0:	0002c103          	lbu	sp,0(t0)
  4003e4:	00000013          	nop
  4003e8:	00200113          	li	sp,2
  4003ec:	00200393          	li	t2,2
  4003f0:	00711463          	bne	sp,t2,4003f8 <fail>
  4003f4:	02301063          	bne	zero,gp,400414 <pass>

004003f8 <fail>:
  4003f8:	0ff0000f          	fence
  4003fc:	00018063          	beqz	gp,4003fc <fail+0x4>
  400400:	00119193          	sll	gp,gp,0x1
  400404:	0011e193          	or	gp,gp,1
  400408:	05d00893          	li	a7,93
  40040c:	00018513          	mv	a0,gp
  400410:	0000006f          	j	400410 <fail+0x18>

00400414 <pass>:
  400414:	0ff0000f          	fence
  400418:	00100193          	li	gp,1
  40041c:	05d00893          	li	a7,93
  400420:	00000513          	li	a0,0
  400424:	00000073          	ecall
  400428:	c0001073          	unimp
	...
